	.file	"z4.cpp"
	.intel_syntax noprefix
	.text
	.local	_ZStL8__ioinit
	.comm	_ZStL8__ioinit,1,1
	.section	.text._ZN9CoolClass3setEi,"axG",@progbits,_ZN9CoolClass3setEi,comdat
	.align 2
	.weak	_ZN9CoolClass3setEi
	.type	_ZN9CoolClass3setEi, @function
_ZN9CoolClass3setEi:
.LFB1731:
	.cfi_startproc
	push	rbp
	.cfi_def_cfa_offset 16
	.cfi_offset 6, -16
	mov	rbp, rsp
	.cfi_def_cfa_register 6
	mov	QWORD PTR [rbp-8], rdi
	mov	DWORD PTR [rbp-12], esi
	mov	rax, QWORD PTR [rbp-8]
	mov	edx, DWORD PTR [rbp-12]
	mov	DWORD PTR [rax+8], edx
	nop
	pop	rbp
	.cfi_def_cfa 7, 8
	ret
	.cfi_endproc
.LFE1731:
	.size	_ZN9CoolClass3setEi, .-_ZN9CoolClass3setEi
	.section	.text._ZN9CoolClass3getEv,"axG",@progbits,_ZN9CoolClass3getEv,comdat
	.align 2
	.weak	_ZN9CoolClass3getEv
	.type	_ZN9CoolClass3getEv, @function
_ZN9CoolClass3getEv:
.LFB1732:
	.cfi_startproc
	push	rbp
	.cfi_def_cfa_offset 16
	.cfi_offset 6, -16
	mov	rbp, rsp
	.cfi_def_cfa_register 6
	mov	QWORD PTR [rbp-8], rdi
	mov	rax, QWORD PTR [rbp-8]
	mov	eax, DWORD PTR [rax+8]
	pop	rbp
	.cfi_def_cfa 7, 8
	ret
	.cfi_endproc
.LFE1732:
	.size	_ZN9CoolClass3getEv, .-_ZN9CoolClass3getEv
	.section	.text._ZN13PlainOldClass3setEi,"axG",@progbits,_ZN13PlainOldClass3setEi,comdat
	.align 2
	.weak	_ZN13PlainOldClass3setEi
	.type	_ZN13PlainOldClass3setEi, @function
_ZN13PlainOldClass3setEi:
.LFB1733:
	.cfi_startproc
	push	rbp
	.cfi_def_cfa_offset 16
	.cfi_offset 6, -16
	mov	rbp, rsp
	.cfi_def_cfa_register 6
	mov	QWORD PTR [rbp-8], rdi
	mov	DWORD PTR [rbp-12], esi
	mov	rax, QWORD PTR [rbp-8]
	mov	edx, DWORD PTR [rbp-12]
	mov	DWORD PTR [rax], edx
	nop
	pop	rbp
	.cfi_def_cfa 7, 8
	ret
	.cfi_endproc
.LFE1733:
	.size	_ZN13PlainOldClass3setEi, .-_ZN13PlainOldClass3setEi
	.section	.text._ZN4BaseC2Ev,"axG",@progbits,_ZN4BaseC5Ev,comdat
	.align 2
	.weak	_ZN4BaseC2Ev
	.type	_ZN4BaseC2Ev, @function
_ZN4BaseC2Ev:
.LFB1738:
	.cfi_startproc
	push	rbp
	.cfi_def_cfa_offset 16
	.cfi_offset 6, -16
	mov	rbp, rsp
	.cfi_def_cfa_register 6
	mov	QWORD PTR [rbp-8], rdi
	mov	edx, OFFSET FLAT:_ZTV4Base+16
	mov	rax, QWORD PTR [rbp-8]
	mov	QWORD PTR [rax], rdx
	nop
	pop	rbp
	.cfi_def_cfa 7, 8
	ret
	.cfi_endproc
.LFE1738:
	.size	_ZN4BaseC2Ev, .-_ZN4BaseC2Ev
	.weak	_ZN4BaseC1Ev
	.set	_ZN4BaseC1Ev,_ZN4BaseC2Ev
	.section	.text._ZN9CoolClassC2Ev,"axG",@progbits,_ZN9CoolClassC5Ev,comdat
	.align 2
	.weak	_ZN9CoolClassC2Ev
	.type	_ZN9CoolClassC2Ev, @function
_ZN9CoolClassC2Ev:
.LFB1740:
	.cfi_startproc
	push	rbp
	.cfi_def_cfa_offset 16
	.cfi_offset 6, -16
	mov	rbp, rsp
	.cfi_def_cfa_register 6
	sub	rsp, 16
	mov	QWORD PTR [rbp-8], rdi
	mov	rax, QWORD PTR [rbp-8]
	mov	rdi, rax
	call	_ZN4BaseC2Ev
	mov	edx, OFFSET FLAT:_ZTV9CoolClass+16
	mov	rax, QWORD PTR [rbp-8]
	mov	QWORD PTR [rax], rdx
	nop
	leave
	.cfi_def_cfa 7, 8
	ret
	.cfi_endproc
.LFE1740:
	.size	_ZN9CoolClassC2Ev, .-_ZN9CoolClassC2Ev
	.weak	_ZN9CoolClassC1Ev
	.set	_ZN9CoolClassC1Ev,_ZN9CoolClassC2Ev
	.text
	.globl	main
	.type	main, @function
main:
.LFB1735:
	.cfi_startproc
	push	rbp
	.cfi_def_cfa_offset 16
	.cfi_offset 6, -16
	mov	rbp, rsp
	.cfi_def_cfa_register 6
	push	rbx
	sub	rsp, 24
	.cfi_offset 3, -24
	mov	edi, 16
	call	_Znwm
	mov	rbx, rax
	mov	rdi, rbx
	call	_ZN9CoolClassC1Ev
	mov	QWORD PTR [rbp-24], rbx
	lea	rax, [rbp-28]
	mov	esi, 42
	mov	rdi, rax
	call	_ZN13PlainOldClass3setEi
	mov	rax, QWORD PTR [rbp-24]
	mov	rax, QWORD PTR [rax]
	mov	rdx, QWORD PTR [rax]
	mov	rax, QWORD PTR [rbp-24]
	mov	esi, 42
	mov	rdi, rax
	call	rdx
	mov	eax, 0
	mov	rbx, QWORD PTR [rbp-8]
	leave
	.cfi_def_cfa 7, 8
	ret
	.cfi_endproc
.LFE1735:
	.size	main, .-main
	.weak	_ZTV9CoolClass
	.section	.rodata._ZTV9CoolClass,"aG",@progbits,_ZTV9CoolClass,comdat
	.align 8
	.type	_ZTV9CoolClass, @object
	.size	_ZTV9CoolClass, 32
_ZTV9CoolClass:
	.quad	0
	.quad	_ZTI9CoolClass
	.quad	_ZN9CoolClass3setEi
	.quad	_ZN9CoolClass3getEv
	.weak	_ZTV4Base
	.section	.rodata._ZTV4Base,"aG",@progbits,_ZTV4Base,comdat
	.align 8
	.type	_ZTV4Base, @object
	.size	_ZTV4Base, 32
_ZTV4Base:
	.quad	0
	.quad	_ZTI4Base
	.quad	__cxa_pure_virtual
	.quad	__cxa_pure_virtual
	.weak	_ZTI9CoolClass
	.section	.rodata._ZTI9CoolClass,"aG",@progbits,_ZTI9CoolClass,comdat
	.align 8
	.type	_ZTI9CoolClass, @object
	.size	_ZTI9CoolClass, 24
_ZTI9CoolClass:
	.quad	_ZTVN10__cxxabiv120__si_class_type_infoE+16
	.quad	_ZTS9CoolClass
	.quad	_ZTI4Base
	.weak	_ZTS9CoolClass
	.section	.rodata._ZTS9CoolClass,"aG",@progbits,_ZTS9CoolClass,comdat
	.align 8
	.type	_ZTS9CoolClass, @object
	.size	_ZTS9CoolClass, 11
_ZTS9CoolClass:
	.string	"9CoolClass"
	.weak	_ZTI4Base
	.section	.rodata._ZTI4Base,"aG",@progbits,_ZTI4Base,comdat
	.align 8
	.type	_ZTI4Base, @object
	.size	_ZTI4Base, 16
_ZTI4Base:
	.quad	_ZTVN10__cxxabiv117__class_type_infoE+16
	.quad	_ZTS4Base
	.weak	_ZTS4Base
	.section	.rodata._ZTS4Base,"aG",@progbits,_ZTS4Base,comdat
	.type	_ZTS4Base, @object
	.size	_ZTS4Base, 6
_ZTS4Base:
	.string	"4Base"
	.text
	.type	_Z41__static_initialization_and_destruction_0ii, @function
_Z41__static_initialization_and_destruction_0ii:
.LFB2236:
	.cfi_startproc
	push	rbp
	.cfi_def_cfa_offset 16
	.cfi_offset 6, -16
	mov	rbp, rsp
	.cfi_def_cfa_register 6
	sub	rsp, 16
	mov	DWORD PTR [rbp-4], edi
	mov	DWORD PTR [rbp-8], esi
	cmp	DWORD PTR [rbp-4], 1
	jne	.L11
	cmp	DWORD PTR [rbp-8], 65535
	jne	.L11
	mov	edi, OFFSET FLAT:_ZStL8__ioinit
	call	_ZNSt8ios_base4InitC1Ev
	mov	edx, OFFSET FLAT:__dso_handle
	mov	esi, OFFSET FLAT:_ZStL8__ioinit
	mov	edi, OFFSET FLAT:_ZNSt8ios_base4InitD1Ev
	call	__cxa_atexit
.L11:
	nop
	leave
	.cfi_def_cfa 7, 8
	ret
	.cfi_endproc
.LFE2236:
	.size	_Z41__static_initialization_and_destruction_0ii, .-_Z41__static_initialization_and_destruction_0ii
	.type	_GLOBAL__sub_I_main, @function
_GLOBAL__sub_I_main:
.LFB2237:
	.cfi_startproc
	push	rbp
	.cfi_def_cfa_offset 16
	.cfi_offset 6, -16
	mov	rbp, rsp
	.cfi_def_cfa_register 6
	mov	esi, 65535
	mov	edi, 1
	call	_Z41__static_initialization_and_destruction_0ii
	pop	rbp
	.cfi_def_cfa 7, 8
	ret
	.cfi_endproc
.LFE2237:
	.size	_GLOBAL__sub_I_main, .-_GLOBAL__sub_I_main
	.section	.init_array,"aw"
	.align 8
	.quad	_GLOBAL__sub_I_main
	.weak	__cxa_pure_virtual
	.hidden	__dso_handle
	.ident	"GCC: (GNU) 11.3.1 20220421 (Red Hat 11.3.1-3)"
	.section	.note.GNU-stack,"",@progbits
